cnumpy.core.multiarray
_reconstruct
p0
(cnumpy
ndarray
p1
(I0
tp2
S'b'
p3
tp4
Rp5
(I1
(tcnumpy
dtype
p6
(S'O8'
p7
I0
I1
tp8
Rp9
(I3
S'|'
p10
NNNI-1
I-1
I63
tp11
bI00
(lp12
(dp13
S'No Signal/Unable to use'
p14
I0
sS'Wrong charges'
p15
I1
sS'Refund issues'
p16
I2
sS'Staff Behaviour'
p17
I3
sS'ATM related'
p18
I4
sS'Internet issues'
p19
I5
sS'Wrong/Faulty product'
p20
I6
sS'Wrong charges/Over charge'
p21
I7
sS'Delay in delivery'
p22
I8
satp23
b.